target datalayout = "e-m:e-p270:32:32-p271:32:32-p272:64:64-i64:64-i128:128-f80:128-n8:16:32:64-S128"
target triple = "x86_64-pc-linux-gnu"

%struct.CVodeMemRec = type { ptr, double, ptr, ptr, i32, i32, double, double, ptr, i32, i32, ptr, ptr, i32, [13 x ptr], ptr, ptr, ptr, ptr, ptr, ptr, ptr, ptr, ptr, i32, i32, double, i32, i32, i32, i32, i32, double, double, double, double, double, double, double, double, [14 x double], [6 x double], [13 x double], double, double, double, double, double, double, double, i32, double, i32, i64, i32, i32, i32, double, double, double, double, double, double, double, double, double, double, double, double, i64, i32, i64, i64, i64, i64, i64, i64, i64, i32, double, double, double, i64, i64, i64, i64, ptr, i32, ptr, i32, ptr, ptr, ptr, ptr, ptr, i64, double, i32, i64, double, double, double, i32, double, i32, i32, i32, i32, i32, ptr, i64, i32, [6 x [4 x double]], i32, i64, ptr, i32, ptr, ptr, double, double, double, ptr, ptr, ptr, double, double, i32, i32, i64, ptr, i32, ptr, i32, i32, [13 x double], [13 x double], [13 x ptr], i32 }

@.str = private unnamed_addr constant [116 x i8] c"generated/home/dtcxzyw/WorkSpace/Projects/compilers/llvm-opt-benchmark/bench/sundials/sundials/src/cvode/cvode_io.c\00", align 1
@.str.1 = private unnamed_addr constant [26 x i8] c"cvode_mem = NULL illegal.\00", align 1
@__func__.CVodeGetIntegratorStats = private unnamed_addr constant [24 x i8] c"CVodeGetIntegratorStats\00", align 1

; Function Attrs: nounwind uwtable
define i32 @CVodeGetIntegratorStats(ptr noundef %0, ptr noundef %1, ptr noundef %2, ptr noundef %3, ptr noundef %4, ptr noundef %5, ptr noundef %6, ptr noundef %7, ptr noundef %8, ptr noundef %9, ptr noundef %10) #0 {
  %12 = alloca i32, align 4
  %13 = alloca ptr, align 8
  %14 = alloca ptr, align 8
  %15 = alloca ptr, align 8
  %16 = alloca ptr, align 8
  %17 = alloca ptr, align 8
  %18 = alloca ptr, align 8
  %19 = alloca ptr, align 8
  %20 = alloca ptr, align 8
  %21 = alloca ptr, align 8
  %22 = alloca ptr, align 8
  %23 = alloca ptr, align 8
  %24 = alloca ptr, align 8
  store ptr %0, ptr %13, align 8
  store ptr %1, ptr %14, align 8
  store ptr %2, ptr %15, align 8
  store ptr %3, ptr %16, align 8
  store ptr %4, ptr %17, align 8
  store ptr %5, ptr %18, align 8
  store ptr %6, ptr %19, align 8
  store ptr %7, ptr %20, align 8
  store ptr %8, ptr %21, align 8
  store ptr %9, ptr %22, align 8
  store ptr %10, ptr %23, align 8
  %25 = load ptr, ptr %13, align 8
  %26 = icmp eq ptr %25, null
  br i1 %26, label %27, label %28

27:                                               ; preds = %11
  call void (ptr, i32, i32, ptr, ptr, ptr, ...) @cvProcessError(ptr noundef null, i32 noundef -21, i32 noundef 1447, ptr noundef @__func__.CVodeGetIntegratorStats, ptr noundef @.str, ptr noundef @.str.1)
  store i32 -21, ptr %12, align 4
  br label %70

28:                                               ; preds = %11
  %29 = load ptr, ptr %13, align 8
  store ptr %29, ptr %24, align 8
  %30 = load ptr, ptr %24, align 8
  %31 = getelementptr inbounds %struct.CVodeMemRec, ptr %30, i32 0, i32 71
  %32 = load i64, ptr %31, align 8
  %33 = load ptr, ptr %14, align 8
  store i64 %32, ptr %33, align 8
  %34 = load ptr, ptr %24, align 8
  %35 = getelementptr inbounds %struct.CVodeMemRec, ptr %34, i32 0, i32 72
  %36 = load i64, ptr %35, align 8
  %37 = load ptr, ptr %15, align 8
  store i64 %36, ptr %37, align 8
  %38 = load ptr, ptr %24, align 8
  %39 = getelementptr inbounds %struct.CVodeMemRec, ptr %38, i32 0, i32 77
  %40 = load i64, ptr %39, align 8
  %41 = load ptr, ptr %16, align 8
  store i64 %40, ptr %41, align 8
  %42 = load ptr, ptr %24, align 8
  %43 = getelementptr inbounds %struct.CVodeMemRec, ptr %42, i32 0, i32 76
  %44 = load i64, ptr %43, align 8
  %45 = load ptr, ptr %17, align 8
  store i64 %44, ptr %45, align 8
  %46 = load ptr, ptr %24, align 8
  %47 = getelementptr inbounds %struct.CVodeMemRec, ptr %46, i32 0, i32 97
  %48 = load i32, ptr %47, align 8
  %49 = load ptr, ptr %18, align 8
  store i32 %48, ptr %49, align 4
  %50 = load ptr, ptr %24, align 8
  %51 = getelementptr inbounds %struct.CVodeMemRec, ptr %50, i32 0, i32 29
  %52 = load i32, ptr %51, align 8
  %53 = load ptr, ptr %19, align 8
  store i32 %52, ptr %53, align 4
  %54 = load ptr, ptr %24, align 8
  %55 = getelementptr inbounds %struct.CVodeMemRec, ptr %54, i32 0, i32 99
  %56 = load double, ptr %55, align 8
  %57 = load ptr, ptr %20, align 8
  store double %56, ptr %57, align 8
  %58 = load ptr, ptr %24, align 8
  %59 = getelementptr inbounds %struct.CVodeMemRec, ptr %58, i32 0, i32 100
  %60 = load double, ptr %59, align 8
  %61 = load ptr, ptr %21, align 8
  store double %60, ptr %61, align 8
  %62 = load ptr, ptr %24, align 8
  %63 = getelementptr inbounds %struct.CVodeMemRec, ptr %62, i32 0, i32 35
  %64 = load double, ptr %63, align 8
  %65 = load ptr, ptr %22, align 8
  store double %64, ptr %65, align 8
  %66 = load ptr, ptr %24, align 8
  %67 = getelementptr inbounds %struct.CVodeMemRec, ptr %66, i32 0, i32 38
  %68 = load double, ptr %67, align 8
  %69 = load ptr, ptr %23, align 8
  store double %68, ptr %69, align 8
  store i32 0, ptr %12, align 4
  br label %70

70:                                               ; preds = %28, %27
  %71 = load i32, ptr %12, align 4
  ret i32 %71
}